; Function Attrs: mustprogress nounwind uwtable
define hidden noundef ptr @_ZN6hermes9IRBuilder26createGlobalObjectPropertyEN4llvh9StringRefEb(ptr noundef nonnull readonly align 8 captures(none) dereferenceable(40) %this, ptr %name.coerce0, i64 %name.coerce1, i1 noundef zeroext %declared) local_unnamed_addr #0 align 2 {
entry:
  %0 = load ptr, ptr %this, align 8
  %Ctx.i = getelementptr inbounds nuw i8, ptr %0, i64 40
  %1 = load ptr, ptr %Ctx.i, align 8
  %stringTable_.i = getelementptr inbounds nuw i8, ptr %1, i64 72
  %call.i.i = tail call noundef ptr @_ZN6hermes11StringTable9getStringEN4llvh9StringRefE(ptr noundef nonnull align 8 dereferenceable(32) %stringTable_.i, ptr %name.coerce0, i64 %name.coerce1)
  %2 = load ptr, ptr %this, align 8
  %call.i = tail call noundef ptr @_ZN6hermes6Module17addGlobalPropertyENS_10IdentifierEb(ptr noundef nonnull align 8 dereferenceable(1033) %2, ptr %call.i.i, i1 noundef zeroext %declared) #15
  ret ptr %call.i
}